target datalayout = "e-m:e-p270:32:32-p271:32:32-p272:64:64-i64:64-i128:128-f80:128-n8:16:32:64-S128"
target triple = "x86_64-pc-linux-gnu"

%struct._object = type { %union.anon, ptr }
%union.anon = type { i64 }
%struct.PyVarObject = type { %struct._object, i64 }
%struct._typeobject = type { %struct.PyVarObject, ptr, i64, i64, ptr, i64, ptr, ptr, ptr, ptr, ptr, ptr, ptr, ptr, ptr, ptr, ptr, ptr, ptr, i64, ptr, ptr, ptr, ptr, i64, ptr, ptr, ptr, ptr, ptr, ptr, ptr, ptr, ptr, i64, ptr, ptr, ptr, ptr, ptr, ptr, ptr, ptr, ptr, ptr, ptr, i32, ptr, ptr, i8, i16 }
%struct.PicklerObject = type { %struct._object, ptr, ptr, ptr, ptr, ptr, ptr, ptr, i64, i64, i32, i32, i32, i64, i64, i32, i32, i32, ptr, ptr }
%struct.anon = type { i32, i32 }
%struct.PyByteArrayObject = type { %struct.PyVarObject, i64, ptr, ptr, i64 }

@PyByteArray_Type = external global %struct._typeobject, align 8
@.str.27 = private unnamed_addr constant [6 x i8] c"(O())\00", align 1
@.str.39 = private unnamed_addr constant [7 x i8] c"(O(O))\00", align 1
@_PyByteArray_empty_string = external global [0 x i8], align 1

; Function Attrs: nounwind uwtable
define internal void @_write_size64(ptr noundef %0, i64 noundef %1) #0 {
  %3 = alloca ptr, align 8
  %4 = alloca i64, align 8
  %5 = alloca i64, align 8
  store ptr %0, ptr %3, align 8, !tbaa !36
  store i64 %1, ptr %4, align 8, !tbaa !34
  call void @llvm.lifetime.start.p0(i64 8, ptr %5) #10
  store i64 0, ptr %5, align 8, !tbaa !34
  br label %6

6:                                                ; preds = %19, %2
  %7 = load i64, ptr %5, align 8, !tbaa !34
  %8 = icmp ult i64 %7, 8
  br i1 %8, label %9, label %22

9:                                                ; preds = %6
  %10 = load i64, ptr %4, align 8, !tbaa !34
  %11 = load i64, ptr %5, align 8, !tbaa !34
  %12 = mul i64 8, %11
  %13 = lshr i64 %10, %12
  %14 = and i64 %13, 255
  %15 = trunc i64 %14 to i8
  %16 = load ptr, ptr %3, align 8, !tbaa !36
  %17 = load i64, ptr %5, align 8, !tbaa !34
  %18 = getelementptr i8, ptr %16, i64 %17
  store i8 %15, ptr %18, align 1, !tbaa !63
  br label %19

19:                                               ; preds = %9
  %20 = load i64, ptr %5, align 8, !tbaa !34
  %21 = add i64 %20, 1
  store i64 %21, ptr %5, align 8, !tbaa !34
  br label %6, !llvm.loop !117

22:                                               ; preds = %6
  store i64 8, ptr %5, align 8, !tbaa !34
  br label %23

23:                                               ; preds = %30, %22
  %24 = load i64, ptr %5, align 8, !tbaa !34
  %25 = icmp ult i64 %24, 8
  br i1 %25, label %26, label %33

26:                                               ; preds = %23
  %27 = load ptr, ptr %3, align 8, !tbaa !36
  %28 = load i64, ptr %5, align 8, !tbaa !34
  %29 = getelementptr i8, ptr %27, i64 %28
  store i8 0, ptr %29, align 1, !tbaa !63
  br label %30

30:                                               ; preds = %26
  %31 = load i64, ptr %5, align 8, !tbaa !34
  %32 = add i64 %31, 1
  store i64 %32, ptr %5, align 8, !tbaa !34
  br label %23, !llvm.loop !118

33:                                               ; preds = %23
  call void @llvm.lifetime.end.p0(i64 8, ptr %5) #10
  ret void
}

; Function Attrs: alwaysinline nounwind uwtable
define internal i32 @_Py_IsImmortal(ptr noundef %0) #4 {
  %2 = alloca ptr, align 8
  store ptr %0, ptr %2, align 8, !tbaa !3
  %3 = load ptr, ptr %2, align 8, !tbaa !3
  %4 = getelementptr inbounds nuw %struct._object, ptr %3, i32 0, i32 0
  %5 = getelementptr inbounds nuw %struct.anon, ptr %4, i32 0, i32 0
  %6 = load i32, ptr %5, align 8, !tbaa !63
  %7 = icmp slt i32 %6, 0
  %8 = zext i1 %7 to i32
  ret i32 %8
}

; Function Attrs: inlinehint nounwind uwtable
define internal i64 @Py_SIZE(ptr noundef %0) #3 {
  %2 = alloca ptr, align 8
  store ptr %0, ptr %2, align 8, !tbaa !3
  %3 = load ptr, ptr %2, align 8, !tbaa !3
  %4 = getelementptr inbounds nuw %struct.PyVarObject, ptr %3, i32 0, i32 1
  %5 = load i64, ptr %4, align 8, !tbaa !40
  ret i64 %5
}

; Function Attrs: nounwind uwtable
define internal i32 @_save_bytearray_data(ptr noundef %0, ptr noundef %1, ptr noundef %2, ptr noundef %3, i64 noundef %4) #0 {
  %6 = alloca i32, align 4
  %7 = alloca ptr, align 8
  %8 = alloca ptr, align 8
  %9 = alloca ptr, align 8
  %10 = alloca ptr, align 8
  %11 = alloca i64, align 8
  %12 = alloca [9 x i8], align 1
  %13 = alloca i64, align 8
  %14 = alloca i32, align 4
  store ptr %0, ptr %7, align 8, !tbaa !8
  store ptr %1, ptr %8, align 8, !tbaa !38
  store ptr %2, ptr %9, align 8, !tbaa !3
  store ptr %3, ptr %10, align 8, !tbaa !36
  store i64 %4, ptr %11, align 8, !tbaa !34
  call void @llvm.lifetime.start.p0(i64 9, ptr %12) #10
  call void @llvm.lifetime.start.p0(i64 8, ptr %13) #10
  %15 = load i64, ptr %11, align 8, !tbaa !34
  %16 = icmp slt i64 %15, 0
  br i1 %16, label %17, label %18

17:                                               ; preds = %5
  store i32 -1, ptr %6, align 4
  store i32 1, ptr %14, align 4
  br label %40

18:                                               ; preds = %5
  %19 = getelementptr [9 x i8], ptr %12, i64 0, i64 0
  store i8 -106, ptr %19, align 1, !tbaa !63
  %20 = getelementptr inbounds [9 x i8], ptr %12, i64 0, i64 0
  %21 = getelementptr i8, ptr %20, i64 1
  %22 = load i64, ptr %11, align 8, !tbaa !34
  call void @_write_size64(ptr noundef %21, i64 noundef %22)
  store i64 9, ptr %13, align 8, !tbaa !34
  %23 = load ptr, ptr %8, align 8, !tbaa !38
  %24 = getelementptr inbounds [9 x i8], ptr %12, i64 0, i64 0
  %25 = load i64, ptr %13, align 8, !tbaa !34
  %26 = load ptr, ptr %10, align 8, !tbaa !36
  %27 = load i64, ptr %11, align 8, !tbaa !34
  %28 = load ptr, ptr %9, align 8, !tbaa !3
  %29 = call i32 @_Pickler_write_bytes(ptr noundef %23, ptr noundef %24, i64 noundef %25, ptr noundef %26, i64 noundef %27, ptr noundef %28)
  %30 = icmp slt i32 %29, 0
  br i1 %30, label %31, label %32

31:                                               ; preds = %18
  store i32 -1, ptr %6, align 4
  store i32 1, ptr %14, align 4
  br label %40

32:                                               ; preds = %18
  %33 = load ptr, ptr %7, align 8, !tbaa !8
  %34 = load ptr, ptr %8, align 8, !tbaa !38
  %35 = load ptr, ptr %9, align 8, !tbaa !3
  %36 = call i32 @memo_put(ptr noundef %33, ptr noundef %34, ptr noundef %35)
  %37 = icmp slt i32 %36, 0
  br i1 %37, label %38, label %39

38:                                               ; preds = %32
  store i32 -1, ptr %6, align 4
  store i32 1, ptr %14, align 4
  br label %40

39:                                               ; preds = %32
  store i32 0, ptr %6, align 4
  store i32 1, ptr %14, align 4
  br label %40

40:                                               ; preds = %39, %38, %31, %17
  call void @llvm.lifetime.end.p0(i64 8, ptr %13) #10
  call void @llvm.lifetime.end.p0(i64 9, ptr %12) #10
  %41 = load i32, ptr %6, align 4
  ret i32 %41
}

; Function Attrs: inlinehint nounwind uwtable
define internal ptr @PyByteArray_AS_STRING(ptr noundef %0) #3 {
  %2 = alloca ptr, align 8
  %3 = alloca ptr, align 8
  %4 = alloca ptr, align 8
  %5 = alloca i32, align 4
  store ptr %0, ptr %3, align 8, !tbaa !3
  call void @llvm.lifetime.start.p0(i64 8, ptr %4) #10
  %6 = load ptr, ptr %3, align 8, !tbaa !3
  store ptr %6, ptr %4, align 8, !tbaa !8
  %7 = load ptr, ptr %4, align 8, !tbaa !8
  %8 = call i64 @Py_SIZE(ptr noundef %7)
  %9 = icmp ne i64 %8, 0
  br i1 %9, label %10, label %14

10:                                               ; preds = %1
  %11 = load ptr, ptr %4, align 8, !tbaa !8
  %12 = getelementptr inbounds nuw %struct.PyByteArrayObject, ptr %11, i32 0, i32 3
  %13 = load ptr, ptr %12, align 8, !tbaa !150
  store ptr %13, ptr %2, align 8
  store i32 1, ptr %5, align 4
  br label %15

14:                                               ; preds = %1
  store ptr @_PyByteArray_empty_string, ptr %2, align 8
  store i32 1, ptr %5, align 4
  br label %15

15:                                               ; preds = %14, %10
  call void @llvm.lifetime.end.p0(i64 8, ptr %4) #10
  %16 = load ptr, ptr %2, align 8
  ret ptr %16
}

; Function Attrs: alwaysinline nounwind uwtable
define internal void @Py_DECREF(ptr noundef %0) #4 {
  %2 = alloca ptr, align 8
  store ptr %0, ptr %2, align 8, !tbaa !3
  %3 = load ptr, ptr %2, align 8, !tbaa !3
  %4 = call i32 @_Py_IsImmortal(ptr noundef %3)
  %5 = icmp ne i32 %4, 0
  br i1 %5, label %6, label %7

6:                                                ; preds = %1
  br label %16

7:                                                ; preds = %1
  %8 = load ptr, ptr %2, align 8, !tbaa !3
  %9 = getelementptr inbounds nuw %struct._object, ptr %8, i32 0, i32 0
  %10 = getelementptr inbounds nuw %struct.anon, ptr %9, i32 0, i32 0
  %11 = load i32, ptr %10, align 8, !tbaa !63
  %12 = add i32 %11, -1
  store i32 %12, ptr %10, align 8, !tbaa !63
  %13 = icmp eq i32 %12, 0
  br i1 %13, label %14, label %16

14:                                               ; preds = %7
  %15 = load ptr, ptr %2, align 8, !tbaa !3
  call void @_Py_Dealloc(ptr noundef %15)
  br label %16

16:                                               ; preds = %6, %14, %7
  ret void
}

; Function Attrs: inlinehint nounwind uwtable
define internal i64 @PyByteArray_GET_SIZE(ptr noundef %0) #3 {
  %2 = alloca ptr, align 8
  %3 = alloca ptr, align 8
  store ptr %0, ptr %2, align 8, !tbaa !3
  call void @llvm.lifetime.start.p0(i64 8, ptr %3) #10
  %4 = load ptr, ptr %2, align 8, !tbaa !3
  store ptr %4, ptr %3, align 8, !tbaa !8
  %5 = load ptr, ptr %3, align 8, !tbaa !8
  %6 = call i64 @Py_SIZE(ptr noundef %5)
  call void @llvm.lifetime.end.p0(i64 8, ptr %3) #10
  ret i64 %6
}

; Function Attrs: nounwind uwtable
define internal i32 @save_bytearray(ptr noundef %0, ptr noundef %1, ptr noundef %2) #0 {
  %4 = alloca i32, align 4
  %5 = alloca ptr, align 8
  %6 = alloca ptr, align 8
  %7 = alloca ptr, align 8
  %8 = alloca ptr, align 8
  %9 = alloca i32, align 4
  %10 = alloca ptr, align 8
  %11 = alloca i32, align 4
  store ptr %0, ptr %5, align 8, !tbaa !8
  store ptr %1, ptr %6, align 8, !tbaa !38
  store ptr %2, ptr %7, align 8, !tbaa !3
  %12 = load ptr, ptr %6, align 8, !tbaa !38
  %13 = getelementptr inbounds nuw %struct.PicklerObject, ptr %12, i32 0, i32 10
  %14 = load i32, ptr %13, align 8, !tbaa !53
  %15 = icmp slt i32 %14, 5
  br i1 %15, label %16, label %45

16:                                               ; preds = %3
  call void @llvm.lifetime.start.p0(i64 8, ptr %8) #10
  store ptr null, ptr %8, align 8, !tbaa !3
  call void @llvm.lifetime.start.p0(i64 4, ptr %9) #10
  %17 = load ptr, ptr %7, align 8, !tbaa !3
  %18 = call i64 @PyByteArray_GET_SIZE(ptr noundef %17)
  %19 = icmp eq i64 %18, 0
  br i1 %19, label %20, label %22

20:                                               ; preds = %16
  %21 = call ptr (ptr, ...) @Py_BuildValue(ptr noundef @.str.27, ptr noundef @PyByteArray_Type)
  store ptr %21, ptr %8, align 8, !tbaa !3
  br label %32

22:                                               ; preds = %16
  call void @llvm.lifetime.start.p0(i64 8, ptr %10) #10
  %23 = load ptr, ptr %7, align 8, !tbaa !3
  %24 = call ptr @PyBytes_FromObject(ptr noundef %23)
  store ptr %24, ptr %10, align 8, !tbaa !3
  %25 = load ptr, ptr %10, align 8, !tbaa !3
  %26 = icmp ne ptr %25, null
  br i1 %26, label %27, label %31

27:                                               ; preds = %22
  %28 = load ptr, ptr %10, align 8, !tbaa !3
  %29 = call ptr (ptr, ...) @Py_BuildValue(ptr noundef @.str.39, ptr noundef @PyByteArray_Type, ptr noundef %28)
  store ptr %29, ptr %8, align 8, !tbaa !3
  %30 = load ptr, ptr %10, align 8, !tbaa !3
  call void @Py_DECREF(ptr noundef %30)
  br label %31

31:                                               ; preds = %27, %22
  call void @llvm.lifetime.end.p0(i64 8, ptr %10) #10
  br label %32

32:                                               ; preds = %31, %20
  %33 = load ptr, ptr %8, align 8, !tbaa !3
  %34 = icmp eq ptr %33, null
  br i1 %34, label %35, label %36

35:                                               ; preds = %32
  store i32 -1, ptr %4, align 4
  store i32 1, ptr %11, align 4
  br label %44

36:                                               ; preds = %32
  %37 = load ptr, ptr %5, align 8, !tbaa !8
  %38 = load ptr, ptr %6, align 8, !tbaa !38
  %39 = load ptr, ptr %8, align 8, !tbaa !3
  %40 = load ptr, ptr %7, align 8, !tbaa !3
  %41 = call i32 @save_reduce(ptr noundef %37, ptr noundef %38, ptr noundef %39, ptr noundef %40)
  store i32 %41, ptr %9, align 4, !tbaa !12
  %42 = load ptr, ptr %8, align 8, !tbaa !3
  call void @Py_DECREF(ptr noundef %42)
  %43 = load i32, ptr %9, align 4, !tbaa !12
  store i32 %43, ptr %4, align 4
  store i32 1, ptr %11, align 4
  br label %44

44:                                               ; preds = %36, %35
  call void @llvm.lifetime.end.p0(i64 4, ptr %9) #10
  call void @llvm.lifetime.end.p0(i64 8, ptr %8) #10
  br label %54

45:                                               ; preds = %3
  %46 = load ptr, ptr %5, align 8, !tbaa !8
  %47 = load ptr, ptr %6, align 8, !tbaa !38
  %48 = load ptr, ptr %7, align 8, !tbaa !3
  %49 = load ptr, ptr %7, align 8, !tbaa !3
  %50 = call ptr @PyByteArray_AS_STRING(ptr noundef %49)
  %51 = load ptr, ptr %7, align 8, !tbaa !3
  %52 = call i64 @PyByteArray_GET_SIZE(ptr noundef %51)
  %53 = call i32 @_save_bytearray_data(ptr noundef %46, ptr noundef %47, ptr noundef %48, ptr noundef %50, i64 noundef %52)
  store i32 %53, ptr %4, align 4
  br label %54

54:                                               ; preds = %45, %44
  %55 = load i32, ptr %4, align 4
  ret i32 %55
}