; Function Attrs: nounwind uwtable
define internal fastcc range(i32 -1, 1) i32 @save_bytearray(ptr noundef readonly captures(none) %0, ptr noundef %1, ptr noundef %2) unnamed_addr #0 {
  %4 = alloca [9 x i8], align 1
  %5 = getelementptr inbounds nuw i8, ptr %1, i64 88
  %6 = load i32, ptr %5, align 8, !tbaa !36
  %7 = icmp slt i32 %6, 5
  %8 = getelementptr i8, ptr %2, i64 16
  %.val = load i64, ptr %8, align 8, !tbaa !32
  %9 = icmp eq i64 %.val, 0
  br i1 %7, label %10, label %30

10:                                               ; preds = %3
  br i1 %9, label %11, label %13

11:                                               ; preds = %10
  %12 = tail call ptr (ptr, ...) @Py_BuildValue(ptr noundef nonnull @.str.27, ptr noundef nonnull @PyByteArray_Type) #13
  br label %Py_DECREF.exit22

13:                                               ; preds = %10
  %14 = tail call ptr @PyBytes_FromObject(ptr noundef nonnull %2) #13
  %.not = icmp eq ptr %14, null
  br i1 %.not, label %Py_DECREF.exit, label %15

15:                                               ; preds = %13
  %16 = tail call ptr (ptr, ...) @Py_BuildValue(ptr noundef nonnull @.str.39, ptr noundef nonnull @PyByteArray_Type, ptr noundef nonnull %14) #13
  %17 = load i32, ptr %14, align 8, !tbaa !42
  %.not.i21 = icmp sgt i32 %17, -1
  br i1 %.not.i21, label %18, label %Py_DECREF.exit22

18:                                               ; preds = %15
  %19 = add nsw i32 %17, -1
  store i32 %19, ptr %14, align 8, !tbaa !42
  %20 = icmp eq i32 %19, 0
  br i1 %20, label %21, label %Py_DECREF.exit22

21:                                               ; preds = %18
  tail call void @_Py_Dealloc(ptr noundef nonnull %14) #13
  br label %Py_DECREF.exit22

Py_DECREF.exit22:                                 ; preds = %21, %18, %15, %11
  %.018 = phi ptr [ %12, %11 ], [ %16, %15 ], [ %16, %18 ], [ %16, %21 ]
  %22 = icmp eq ptr %.018, null
  br i1 %22, label %Py_DECREF.exit, label %23

23:                                               ; preds = %Py_DECREF.exit22
  %24 = tail call fastcc i32 @save_reduce(ptr noundef %0, ptr noundef nonnull %1, ptr noundef nonnull %.018, ptr noundef nonnull %2)
  %25 = load i32, ptr %.018, align 8, !tbaa !42
  %.not.i = icmp sgt i32 %25, -1
  br i1 %.not.i, label %26, label %Py_DECREF.exit

26:                                               ; preds = %23
  %27 = add nsw i32 %25, -1
  store i32 %27, ptr %.018, align 8, !tbaa !42
  %28 = icmp eq i32 %27, 0
  br i1 %28, label %29, label %Py_DECREF.exit

29:                                               ; preds = %26
  tail call void @_Py_Dealloc(ptr noundef nonnull %.018) #13
  br label %Py_DECREF.exit

30:                                               ; preds = %3
  br i1 %9, label %PyByteArray_AS_STRING.exit.thread, label %PyByteArray_AS_STRING.exit

PyByteArray_AS_STRING.exit.thread:                ; preds = %30
  call void @llvm.lifetime.start.p0(i64 9, ptr nonnull %4) #13
  br label %34

PyByteArray_AS_STRING.exit:                       ; preds = %30
  %31 = getelementptr inbounds nuw i8, ptr %2, i64 40
  %32 = load ptr, ptr %31, align 8, !tbaa !133
  call void @llvm.lifetime.start.p0(i64 9, ptr nonnull %4) #13
  %33 = icmp slt i64 %.val, 0
  br i1 %33, label %_save_bytearray_data.exit, label %34

34:                                               ; preds = %PyByteArray_AS_STRING.exit.thread, %PyByteArray_AS_STRING.exit
  %.0.i29 = phi ptr [ @_PyByteArray_empty_string, %PyByteArray_AS_STRING.exit.thread ], [ %32, %PyByteArray_AS_STRING.exit ]
  store i8 -106, ptr %4, align 1, !tbaa !42
  %35 = getelementptr inbounds nuw i8, ptr %4, i64 1
  br label %36

36:                                               ; preds = %36, %34
  %.09.i.i = phi i64 [ 0, %34 ], [ %41, %36 ]
  %37 = shl nuw nsw i64 %.09.i.i, 3
  %38 = lshr i64 %.val, %37
  %39 = trunc i64 %38 to i8
  %40 = getelementptr i8, ptr %35, i64 %.09.i.i
  store i8 %39, ptr %40, align 1, !tbaa !42
  %41 = add nuw nsw i64 %.09.i.i, 1
  %exitcond.not.i.i = icmp eq i64 %41, 8
  br i1 %exitcond.not.i.i, label %_write_size64.exit.i, label %36, !llvm.loop !48

_write_size64.exit.i:                             ; preds = %36
  %42 = call fastcc i32 @_Pickler_write_bytes(ptr noundef %1, ptr noundef %4, i64 noundef 9, ptr noundef %.0.i29, i64 noundef %.val, ptr noundef %2)
  %43 = icmp slt i32 %42, 0
  br i1 %43, label %_save_bytearray_data.exit, label %44

44:                                               ; preds = %_write_size64.exit.i
  %45 = tail call fastcc i32 @memo_put(ptr noundef readonly %0, ptr noundef %1, ptr noundef %2)
  br label %_save_bytearray_data.exit

_save_bytearray_data.exit:                        ; preds = %PyByteArray_AS_STRING.exit, %_write_size64.exit.i, %44
  %.0.i26 = phi i32 [ -1, %PyByteArray_AS_STRING.exit ], [ -1, %_write_size64.exit.i ], [ %45, %44 ]
  call void @llvm.lifetime.end.p0(i64 9, ptr nonnull %4) #13
  br label %Py_DECREF.exit

Py_DECREF.exit:                                   ; preds = %13, %29, %26, %23, %Py_DECREF.exit22, %_save_bytearray_data.exit
  %.1 = phi i32 [ %.0.i26, %_save_bytearray_data.exit ], [ -1, %Py_DECREF.exit22 ], [ %24, %23 ], [ %24, %26 ], [ %24, %29 ], [ -1, %13 ]
  ret i32 %.1
}